target datalayout = "e-m:e-p270:32:32-p271:32:32-p272:64:64-i64:64-i128:128-f80:128-n8:16:32:64-S128"
target triple = "x86_64-pc-linux-gnu"

%class.RtpAudioFile = type { %class.QIODevice, ptr, ptr, i64, i64, i64, i64, %struct.rtp_frame_info }
%class.QIODevice = type { %class.QObject }
%class.QObject = type { ptr, %class.QScopedPointer }
%class.QScopedPointer = type { ptr }
%struct.rtp_frame_info = type { i64, i64, i64, i32, i32 }

; Function Attrs: mustprogress nounwind uwtable
define void @_ZN12RtpAudioFile23frameUpdateRealCountersEx(ptr noundef nonnull align 8 dereferenceable(96) %0, i64 noundef %1) #2 align 2 {
  %3 = alloca ptr, align 8
  %4 = alloca i64, align 8
  %5 = alloca i64, align 8
  store ptr %0, ptr %3, align 8
  store i64 %1, ptr %4, align 8
  %6 = load ptr, ptr %3, align 8
  %7 = getelementptr inbounds %class.RtpAudioFile, ptr %6, i32 0, i32 3
  %8 = load i64, ptr %7, align 8
  %9 = getelementptr inbounds %class.RtpAudioFile, ptr %6, i32 0, i32 4
  %10 = load i64, ptr %9, align 8
  %11 = icmp slt i64 %8, %10
  br i1 %11, label %12, label %28

12:                                               ; preds = %2
  %13 = getelementptr inbounds %class.RtpAudioFile, ptr %6, i32 0, i32 3
  %14 = load i64, ptr %13, align 8
  %15 = load i64, ptr %4, align 8
  %16 = add i64 %14, %15
  %17 = getelementptr inbounds %class.RtpAudioFile, ptr %6, i32 0, i32 4
  %18 = load i64, ptr %17, align 8
  %19 = sub i64 %16, %18
  store i64 %19, ptr %5, align 8
  %20 = load i64, ptr %5, align 8
  %21 = icmp sgt i64 %20, 0
  br i1 %21, label %22, label %27

22:                                               ; preds = %12
  %23 = load i64, ptr %5, align 8
  %24 = getelementptr inbounds %class.RtpAudioFile, ptr %6, i32 0, i32 4
  %25 = load i64, ptr %24, align 8
  %26 = add i64 %25, %23
  store i64 %26, ptr %24, align 8
  br label %27

27:                                               ; preds = %22, %12
  br label %33

28:                                               ; preds = %2
  %29 = load i64, ptr %4, align 8
  %30 = getelementptr inbounds %class.RtpAudioFile, ptr %6, i32 0, i32 4
  %31 = load i64, ptr %30, align 8
  %32 = add i64 %31, %29
  store i64 %32, ptr %30, align 8
  br label %33

33:                                               ; preds = %28, %27
  %34 = load i64, ptr %4, align 8
  %35 = getelementptr inbounds %class.RtpAudioFile, ptr %6, i32 0, i32 3
  %36 = load i64, ptr %35, align 8
  %37 = add i64 %36, %34
  store i64 %37, ptr %35, align 8
  ret void
}