; Function Attrs: mustprogress nofree norecurse nosync nounwind willreturn memory(argmem: readwrite) uwtable
define void @_ZN12RtpAudioFile23frameUpdateRealCountersEx(ptr nocapture noundef nonnull align 8 dereferenceable(96) %0, i64 noundef %1) local_unnamed_addr #6 align 2 {
  %3 = getelementptr inbounds i8, ptr %0, i64 32
  %4 = load i64, ptr %3, align 8
  %5 = getelementptr inbounds i8, ptr %0, i64 40
  %6 = load i64, ptr %5, align 8
  %7 = icmp slt i64 %4, %6
  br i1 %7, label %8, label %13

8:                                                ; preds = %2
  %9 = add i64 %4, %1
  %10 = sub i64 %9, %6
  %11 = icmp sgt i64 %10, 0
  br i1 %11, label %12, label %15

12:                                               ; preds = %8
  store i64 %9, ptr %5, align 8
  br label %15

13:                                               ; preds = %2
  %14 = add i64 %6, %1
  store i64 %14, ptr %5, align 8
  %.pre = add i64 %4, %1
  br label %15

15:                                               ; preds = %8, %12, %13
  %.pre-phi = phi i64 [ %9, %8 ], [ %9, %12 ], [ %.pre, %13 ]
  store i64 %.pre-phi, ptr %3, align 8
  ret void
}